; ModuleID = '10/981.c'
source_filename = "10/981.c"
target datalayout = "e-m:e-p270:32:32-p271:32:32-p272:64:64-i64:64-f80:128-n8:16:32:64-S128"
target triple = "x86_64-pc-linux-gnu"

@.str = private unnamed_addr constant [3 x i8] c"%d\00", align 1
@.str.1 = private unnamed_addr constant [4 x i8] c"%d\0A\00", align 1

; Function Attrs: noinline nounwind uwtable
define dso_local void @main() #0 {
  %1 = alloca i32, align 4
  %2 = alloca i32, align 4
  %3 = alloca [100 x i32], align 16
  %4 = alloca i32, align 4
  %5 = alloca i32, align 4
  %6 = call i32 (i8*, ...) @__isoc99_scanf(i8* getelementptr inbounds ([3 x i8], [3 x i8]* @.str, i64 0, i64 0), i32* %1)
  store i32 0, i32* %2, align 4
  br label %7

7:                                                ; preds = %17, %0
  %8 = load i32, i32* %2, align 4
  %9 = load i32, i32* %1, align 4
  %10 = icmp slt i32 %8, %9
  br i1 %10, label %11, label %20

11:                                               ; preds = %7
  %12 = getelementptr inbounds [100 x i32], [100 x i32]* %3, i64 0, i64 0
  %13 = load i32, i32* %2, align 4
  %14 = sext i32 %13 to i64
  %15 = getelementptr inbounds i32, i32* %12, i64 %14
  %16 = call i32 (i8*, ...) @__isoc99_scanf(i8* getelementptr inbounds ([3 x i8], [3 x i8]* @.str, i64 0, i64 0), i32* %15)
  br label %17

17:                                               ; preds = %11
  %18 = load i32, i32* %2, align 4
  %19 = add nsw i32 %18, 1
  store i32 %19, i32* %2, align 4
  br label %7

20:                                               ; preds = %7
  %21 = load i32, i32* %1, align 4
  %22 = sub nsw i32 %21, 1
  store i32 %22, i32* %2, align 4
  br label %23

23:                                               ; preds = %44, %20
  %24 = load i32, i32* %2, align 4
  %25 = icmp sge i32 %24, 0
  br i1 %25, label %26, label %47

26:                                               ; preds = %23
  %27 = getelementptr inbounds [100 x i32], [100 x i32]* %3, i64 0, i64 0
  %28 = load i32, i32* %2, align 4
  %29 = call i32 @left(i32* %27, i32 %28)
  store i32 %29, i32* %4, align 4
  %30 = load i32, i32* %2, align 4
  %31 = load i32, i32* %1, align 4
  %32 = sub nsw i32 %31, 1
  %33 = icmp eq i32 %30, %32
  br i1 %33, label %34, label %36

34:                                               ; preds = %26
  %35 = load i32, i32* %4, align 4
  store i32 %35, i32* %5, align 4
  br label %43

36:                                               ; preds = %26
  %37 = load i32, i32* %4, align 4
  %38 = load i32, i32* %5, align 4
  %39 = icmp sgt i32 %37, %38
  br i1 %39, label %40, label %42

40:                                               ; preds = %36
  %41 = load i32, i32* %4, align 4
  store i32 %41, i32* %5, align 4
  br label %42

42:                                               ; preds = %40, %36
  br label %43

43:                                               ; preds = %42, %34
  br label %44

44:                                               ; preds = %43
  %45 = load i32, i32* %2, align 4
  %46 = add nsw i32 %45, -1
  store i32 %46, i32* %2, align 4
  br label %23

47:                                               ; preds = %23
  %48 = load i32, i32* %5, align 4
  %49 = call i32 (i8*, ...) @printf(i8* getelementptr inbounds ([4 x i8], [4 x i8]* @.str.1, i64 0, i64 0), i32 %48)
  ret void
}

declare dso_local i32 @__isoc99_scanf(i8*, ...) #1

; Function Attrs: noinline nounwind uwtable
define dso_local i32 @left(i32* %0, i32 %1) #0 {
  %3 = alloca i32, align 4
  %4 = alloca i32*, align 8
  %5 = alloca i32, align 4
  %6 = alloca i32, align 4
  %7 = alloca i32, align 4
  %8 = alloca i32, align 4
  %9 = alloca i32, align 4
  store i32* %0, i32** %4, align 8
  store i32 %1, i32* %5, align 4
  store i32 0, i32* %7, align 4
  %10 = load i32, i32* %5, align 4
  %11 = icmp eq i32 %10, 0
  br i1 %11, label %12, label %13

12:                                               ; preds = %2
  store i32 1, i32* %3, align 4
  br label %58

13:                                               ; preds = %2
  %14 = load i32, i32* %5, align 4
  %15 = sub nsw i32 %14, 1
  store i32 %15, i32* %6, align 4
  br label %16

16:                                               ; preds = %49, %13
  %17 = load i32, i32* %6, align 4
  %18 = icmp sge i32 %17, 0
  br i1 %18, label %19, label %52

19:                                               ; preds = %16
  %20 = load i32*, i32** %4, align 8
  %21 = load i32, i32* %6, align 4
  %22 = sext i32 %21 to i64
  %23 = getelementptr inbounds i32, i32* %20, i64 %22
  %24 = load i32, i32* %23, align 4
  %25 = load i32*, i32** %4, align 8
  %26 = load i32, i32* %5, align 4
  %27 = sext i32 %26 to i64
  %28 = getelementptr inbounds i32, i32* %25, i64 %27
  %29 = load i32, i32* %28, align 4
  %30 = icmp sge i32 %24, %29
  br i1 %30, label %31, label %48

31:                                               ; preds = %19
  %32 = load i32*, i32** %4, align 8
  %33 = load i32, i32* %6, align 4
  %34 = call i32 @left(i32* %32, i32 %33)
  %35 = add nsw i32 %34, 1
  store i32 %35, i32* %8, align 4
  %36 = load i32, i32* %7, align 4
  %37 = icmp eq i32 %36, 0
  br i1 %37, label %38, label %40

38:                                               ; preds = %31
  %39 = load i32, i32* %8, align 4
  store i32 %39, i32* %9, align 4
  store i32 1, i32* %7, align 4
  br label %47

40:                                               ; preds = %31
  %41 = load i32, i32* %8, align 4
  %42 = load i32, i32* %9, align 4
  %43 = icmp sgt i32 %41, %42
  br i1 %43, label %44, label %46

44:                                               ; preds = %40
  %45 = load i32, i32* %8, align 4
  store i32 %45, i32* %9, align 4
  br label %46

46:                                               ; preds = %44, %40
  br label %47

47:                                               ; preds = %46, %38
  br label %48

48:                                               ; preds = %47, %19
  br label %49

49:                                               ; preds = %48
  %50 = load i32, i32* %6, align 4
  %51 = add nsw i32 %50, -1
  store i32 %51, i32* %6, align 4
  br label %16

52:                                               ; preds = %16
  %53 = load i32, i32* %7, align 4
  %54 = icmp eq i32 %53, 0
  br i1 %54, label %55, label %56

55:                                               ; preds = %52
  store i32 1, i32* %3, align 4
  br label %58

56:                                               ; preds = %52
  %57 = load i32, i32* %9, align 4
  store i32 %57, i32* %3, align 4
  br label %58

58:                                               ; preds = %56, %55, %12
  %59 = load i32, i32* %3, align 4
  ret i32 %59
}

declare dso_local i32 @printf(i8*, ...) #1


!llvm.module.flags = !{!0}
!llvm.ident = !{!1}

!0 = !{i32 1, !"wchar_size", i32 4}
!1 = !{!"clang version 10.0.0-4ubuntu1 "}
