; ModuleID = 'source-C-CXX/9/981.c'
source_filename = "source-C-CXX/9/981.c"
target datalayout = "e-m:e-p270:32:32-p271:32:32-p272:64:64-i64:64-f80:128-n8:16:32:64-S128"
target triple = "x86_64-pc-linux-gnu"

@.str = private unnamed_addr constant [3 x i8] c"%d\00", align 1
@.str.1 = private unnamed_addr constant [4 x i8] c"%d\0A\00", align 1

; Function Attrs: nofree nounwind sspstrong uwtable
define dso_local void @main() local_unnamed_addr #0 {
  %1 = alloca i32, align 4
  %2 = alloca [100 x i32], align 16
  %3 = bitcast i32* %1 to i8*
  call void @llvm.lifetime.start.p0i8(i64 4, i8* nonnull %3) #4
  %4 = bitcast [100 x i32]* %2 to i8*
  call void @llvm.lifetime.start.p0i8(i64 400, i8* nonnull %4) #4
  %5 = call i32 (i8*, ...) @__isoc99_scanf(i8* getelementptr inbounds ([3 x i8], [3 x i8]* @.str, i64 0, i64 0), i32* nonnull %1)
  %6 = load i32, i32* %1, align 4, !tbaa !5
  %7 = icmp sgt i32 %6, 0
  br i1 %7, label %11, label %29

8:                                                ; preds = %11
  %9 = getelementptr inbounds [100 x i32], [100 x i32]* %2, i64 0, i64 0
  %10 = icmp sgt i32 %16, 0
  br i1 %10, label %19, label %29

11:                                               ; preds = %0, %11
  %12 = phi i64 [ %15, %11 ], [ 0, %0 ]
  %13 = getelementptr inbounds [100 x i32], [100 x i32]* %2, i64 0, i64 %12
  %14 = call i32 (i8*, ...) @__isoc99_scanf(i8* getelementptr inbounds ([3 x i8], [3 x i8]* @.str, i64 0, i64 0), i32* nonnull %13)
  %15 = add nuw nsw i64 %12, 1
  %16 = load i32, i32* %1, align 4, !tbaa !5
  %17 = sext i32 %16 to i64
  %18 = icmp slt i64 %15, %17
  br i1 %18, label %11, label %8, !llvm.loop !9

19:                                               ; preds = %8, %19
  %20 = phi i32 [ %27, %19 ], [ undef, %8 ]
  %21 = phi i32 [ %22, %19 ], [ %16, %8 ]
  %22 = add nsw i32 %21, -1
  %23 = call i32 @left(i32* nonnull %9, i32 %22)
  %24 = icmp eq i32 %21, %16
  %25 = icmp sgt i32 %23, %20
  %26 = select i1 %24, i1 true, i1 %25
  %27 = select i1 %26, i32 %23, i32 %20
  %28 = icmp sgt i32 %21, 1
  br i1 %28, label %19, label %29, !llvm.loop !11

29:                                               ; preds = %19, %0, %8
  %30 = phi i32 [ undef, %8 ], [ undef, %0 ], [ %27, %19 ]
  %31 = call i32 (i8*, ...) @printf(i8* nonnull dereferenceable(1) getelementptr inbounds ([4 x i8], [4 x i8]* @.str.1, i64 0, i64 0), i32 %30)
  call void @llvm.lifetime.end.p0i8(i64 400, i8* nonnull %4) #4
  call void @llvm.lifetime.end.p0i8(i64 4, i8* nonnull %3) #4
  ret void
}

; Function Attrs: argmemonly mustprogress nofree nosync nounwind willreturn
declare void @llvm.lifetime.start.p0i8(i64 immarg, i8* nocapture) #1

; Function Attrs: nofree nounwind
declare noundef i32 @__isoc99_scanf(i8* nocapture noundef readonly, ...) local_unnamed_addr #2

; Function Attrs: nofree nosync nounwind readonly sspstrong uwtable
define dso_local i32 @left(i32* nocapture %0, i32 %1) local_unnamed_addr #3 {
  %3 = icmp eq i32 %1, 0
  br i1 %3, label %36, label %4

4:                                                ; preds = %2
  %5 = icmp sgt i32 %1, 0
  br i1 %5, label %6, label %35

6:                                                ; preds = %4
  %7 = zext i32 %1 to i64
  %8 = getelementptr inbounds i32, i32* %0, i64 %7
  %9 = load i32, i32* %8, align 4, !tbaa !5
  %10 = zext i32 %1 to i64
  br label %11

11:                                               ; preds = %6, %28
  %12 = phi i64 [ %10, %6 ], [ %32, %28 ]
  %13 = phi i32 [ %1, %6 ], [ %16, %28 ]
  %14 = phi i32 [ undef, %6 ], [ %30, %28 ]
  %15 = phi i32 [ 0, %6 ], [ %29, %28 ]
  %16 = add nsw i32 %13, -1
  %17 = zext i32 %16 to i64
  %18 = getelementptr inbounds i32, i32* %0, i64 %17
  %19 = load i32, i32* %18, align 4, !tbaa !5
  %20 = icmp slt i32 %19, %9
  br i1 %20, label %28, label %21

21:                                               ; preds = %11
  %22 = tail call i32 @left(i32* nonnull %0, i32 %16)
  %23 = add nsw i32 %22, 1
  %24 = icmp eq i32 %15, 0
  br i1 %24, label %28, label %25

25:                                               ; preds = %21
  %26 = icmp slt i32 %22, %14
  %27 = select i1 %26, i32 %14, i32 %23
  br label %28

28:                                               ; preds = %25, %21, %11
  %29 = phi i32 [ %15, %11 ], [ 1, %21 ], [ 1, %25 ]
  %30 = phi i32 [ %14, %11 ], [ %23, %21 ], [ %27, %25 ]
  %31 = icmp sgt i64 %12, 1
  %32 = add nsw i64 %12, -1
  br i1 %31, label %11, label %33, !llvm.loop !12

33:                                               ; preds = %28
  %34 = icmp eq i32 %29, 0
  br i1 %34, label %35, label %36

35:                                               ; preds = %4, %33
  br label %36

36:                                               ; preds = %35, %33, %2
  %37 = phi i32 [ 1, %2 ], [ 1, %35 ], [ %30, %33 ]
  ret i32 %37
}

; Function Attrs: nofree nounwind
declare noundef i32 @printf(i8* nocapture noundef readonly, ...) local_unnamed_addr #2

; Function Attrs: argmemonly mustprogress nofree nosync nounwind willreturn
declare void @llvm.lifetime.end.p0i8(i64 immarg, i8* nocapture) #1


!llvm.module.flags = !{!0, !1, !2, !3}
!llvm.ident = !{!4}

!0 = !{i32 1, !"wchar_size", i32 4}
!1 = !{i32 7, !"PIC Level", i32 2}
!2 = !{i32 7, !"PIE Level", i32 2}
!3 = !{i32 7, !"uwtable", i32 1}
!4 = !{!"clang version 13.0.0"}
!5 = !{!6, !6, i64 0}
!6 = !{!"int", !7, i64 0}
!7 = !{!"omnipotent char", !8, i64 0}
!8 = !{!"Simple C/C++ TBAA"}
!9 = distinct !{!9, !10}
!10 = !{!"llvm.loop.mustprogress"}
!11 = distinct !{!11, !10}
!12 = distinct !{!12, !10}
